target datalayout = "e-m:e-p270:32:32-p271:32:32-p272:64:64-i64:64-i128:128-f80:128-n8:16:32:64-S128"
target triple = "x86_64-unknown-linux-gnu"

%"class.sat::literal" = type { i32 }
%"class.arith::arith_proof_hint_builder" = type <{ %class.vector.185, %class.svector.186, i32, i32, i32, i32, i32, [4 x i8] }>
%class.vector.185 = type { ptr }
%class.svector.186 = type { %class.vector.187 }
%class.vector.187 = type { ptr }
%"class.sat::extension" = type { ptr, i8, i32, %class.symbol, ptr }
%"class.euf::th_internalizer" = type { ptr, %class.ptr_vector, %class.svector }
%class.ptr_vector = type { %class.vector }
%class.vector = type { ptr }
%class.svector = type { %class.vector.0 }
%class.vector.0 = type { ptr }
%"class.euf::th_decompile" = type { ptr }
%class.ptr_vector.24 = type { %class.vector.25 }
%class.vector.25 = type { ptr }
%class.svector.57 = type { %class.vector.58 }
%class.vector.58 = type { ptr }
%class.svector.5 = type { %class.vector.6 }
%class.vector.6 = type { ptr }
%class.arith_util = type { ptr, ptr }
%class.random_gen = type { i32 }
%class.svector.148 = type { %class.vector.149 }
%class.vector.149 = type { ptr }
%class.stopwatch = type <{ %"class.std::chrono::time_point", %"class.std::chrono::duration", i8, [7 x i8] }>
%"class.std::chrono::time_point" = type { %"class.std::chrono::duration" }
%"class.std::chrono::duration" = type { i64 }
%class.svector.59 = type { %class.vector.60 }
%class.vector.60 = type { ptr }
%class.symbol = type { ptr }
%class.ref_vector = type { %class.ref_vector_core }
%class.ref_vector_core = type { %class.ref_manager_wrapper, %class.ptr_vector.24 }
%class.ref_manager_wrapper = type { ptr }
%"class.arith::solver" = type { %"class.euf::th_euf_solver.base", [4 x i8], %class.int_hashtable, i8, %class.scoped_ptr_vector.190, i32, [4 x i8], %"class.arith::sls", %class.vector.199, %class.vector.200, i32, i32, i32, i32, %class.svector.201, %class.svector.59, %class.svector.57, %class.svector.148, %class.svector.203, %class.svector.59, ptr, %class.ptr_vector.205, %class.ptr_vector.24, %class.ptr_vector.205, %class.vector.207, %class.u_map.208, %class.vector.207, %class.svector.5, %class.svector.5, i32, %class.svector.213, i32, %class.indexed_uint_set, i32, %"struct.lp_api::stats", %class.svector.215, %class.scoped_ptr.217, %class.scoped_ptr.218, %class.scoped_ptr.219, %"class.arith::solver::resource_limit", %class.ptr_vector.220, %class.symbol, %"class.std::vector.222", %"class.lp::lp_bound_propagator", %class.vector.235, %"class.lp::explanation", %class.svector.59, %class.svector.59, %class.vector.199, %class.svector.57, %class.vector.239, %"class.nla::lemma", %class.arith_util, i8, %class.vector.236, %class.vector.236, %class.vector.236, %class.vector.199, %class.map.241, i32, %"class.sat::literal", %class.ref_vector, %class.obj_ref, %class.obj_map.245, %class.obj_map.250, i8, [7 x i8], %"class.arith::arith_proof_hint_builder" }
%"class.euf::th_euf_solver.base" = type <{ %"class.euf::th_solver", ptr, %class.ptr_vector, %class.svector.5, i32 }>
%"class.euf::th_solver" = type { %"class.sat::extension", %"class.euf::th_model_builder", %"class.euf::th_decompile", %"class.euf::th_internalizer", ptr }
%"class.euf::th_model_builder" = type { ptr }
%class.int_hashtable = type { %class.core_hashtable.base.189, [4 x i8] }
%class.core_hashtable.base.189 = type <{ %"struct.arith::solver::var_value_hash", %"struct.arith::solver::var_value_eq", ptr, i32, i32, i32 }>
%"struct.arith::solver::var_value_hash" = type { ptr }
%"struct.arith::solver::var_value_eq" = type { ptr }
%class.scoped_ptr_vector.190 = type { %class.ptr_vector.191 }
%class.ptr_vector.191 = type { %class.vector.192 }
%class.vector.192 = type { ptr }
%"class.arith::sls" = type <{ %"class.sat::local_search_plugin", ptr, ptr, ptr, %"struct.arith::sls::stats", [4 x i8], %"struct.arith::sls::config", %class.scoped_ptr_vector.193, %class.vector.196, %class.svector.197, i8, [7 x i8] }>
%"class.sat::local_search_plugin" = type { ptr }
%"struct.arith::sls::stats" = type { i32 }
%"struct.arith::sls::config" = type { double, i32, i32, i32, double }
%class.scoped_ptr_vector.193 = type { %class.ptr_vector.194 }
%class.ptr_vector.194 = type { %class.vector.195 }
%class.vector.195 = type { ptr }
%class.vector.196 = type { ptr }
%class.svector.197 = type { %class.vector.198 }
%class.vector.198 = type { ptr }
%class.vector.200 = type { ptr }
%class.svector.201 = type { %class.vector.202 }
%class.vector.202 = type { ptr }
%class.svector.203 = type { %class.vector.204 }
%class.vector.204 = type { ptr }
%class.ptr_vector.205 = type { %class.vector.206 }
%class.vector.206 = type { ptr }
%class.u_map.208 = type { %class.map.209 }
%class.map.209 = type { %class.table2map.210 }
%class.table2map.210 = type { %class.core_hashtable.211 }
%class.core_hashtable.211 = type <{ ptr, i32, i32, i32, [4 x i8] }>
%class.vector.207 = type { ptr }
%class.svector.213 = type { %class.vector.214 }
%class.vector.214 = type { ptr }
%class.indexed_uint_set = type { i32, %class.svector.5, %class.svector.5 }
%"struct.lp_api::stats" = type { i32, i32, i32, i32, i32, i32, i32, i32, i32, i32, i32, i32, i32, i32, i32, i32 }
%class.svector.215 = type { %class.vector.216 }
%class.vector.216 = type { ptr }
%class.scoped_ptr.217 = type { ptr }
%class.scoped_ptr.218 = type { ptr }
%class.scoped_ptr.219 = type { ptr }
%"class.arith::solver::resource_limit" = type { %"class.lp::lp_resource_limit", ptr }
%"class.lp::lp_resource_limit" = type { ptr }
%class.ptr_vector.220 = type { %class.vector.221 }
%class.vector.221 = type { ptr }
%"class.std::vector.222" = type { %"struct.std::_Vector_base.223" }
%"struct.std::_Vector_base.223" = type { %"struct.std::_Vector_base<lp::implied_bound, std_allocator<lp::implied_bound>>::_Vector_impl" }
%"struct.std::_Vector_base<lp::implied_bound, std_allocator<lp::implied_bound>>::_Vector_impl" = type { %"struct.std::_Vector_base<lp::implied_bound, std_allocator<lp::implied_bound>>::_Vector_impl_data" }
%"struct.std::_Vector_base<lp::implied_bound, std_allocator<lp::implied_bound>>::_Vector_impl_data" = type { ptr, ptr, ptr }
%"class.lp::lp_bound_propagator" = type { %class.uint_set, %class.u_map.224, %class.u_map.224, ptr, ptr, %class.map.229, %class.map.229, %class.map.229, ptr }
%class.uint_set = type { %class.svector.5 }
%class.u_map.224 = type { %class.map.225 }
%class.map.225 = type { %class.table2map.226 }
%class.table2map.226 = type { %class.core_hashtable.227 }
%class.core_hashtable.227 = type <{ ptr, i32, i32, i32, [4 x i8] }>
%class.map.229 = type { %class.table2map.230 }
%class.table2map.230 = type { %class.core_hashtable.231 }
%class.core_hashtable.231 = type <{ ptr, i32, i32, i32, [4 x i8] }>
%class.vector.235 = type { ptr }
%"class.lp::explanation" = type { %class.vector.236, %class.hashtable }
%class.hashtable = type { %class.core_hashtable.base.238, [4 x i8] }
%class.core_hashtable.base.238 = type <{ ptr, i32, i32, i32 }>
%class.vector.239 = type { ptr }
%"class.nla::lemma" = type { %class.vector.240, %"class.lp::explanation" }
%class.vector.240 = type { ptr }
%class.vector.236 = type { ptr }
%class.vector.199 = type { ptr }
%class.map.241 = type { %class.table2map.242 }
%class.table2map.242 = type { %class.core_hashtable.243 }
%class.core_hashtable.243 = type <{ ptr, i32, i32, i32, [4 x i8] }>
%class.obj_ref = type { ptr, ptr }
%class.obj_map.245 = type { %class.core_hashtable.246 }
%class.core_hashtable.246 = type <{ ptr, i32, i32, i32, [4 x i8] }>
%class.obj_map.250 = type { %class.core_hashtable.251 }
%class.core_hashtable.251 = type <{ ptr, i32, i32, i32, [4 x i8] }>
%"struct.lp::lp_settings" = type <{ %"class.lp::lp_settings::default_lp_resource_limit", ptr, ptr, ptr, %"struct.lp::statistics", %class.random_gen, i32, i32, i32, i8, [3 x i8], i32, i8, [3 x i8], i32, [4 x i8], double, i8, i8, [2 x i8], i32, i32, i8, [3 x i8], i32, i8, [3 x i8], i32, i8, [3 x i8], i32, i32, i32, i32, i8, [3 x i8], i32, i32, i32, i8, i8, i8, [5 x i8] }>
%"class.lp::lp_settings::default_lp_resource_limit" = type { %"class.lp::lp_resource_limit", ptr, %class.stopwatch }
%"struct.lp::statistics" = type { i32, i32, i32, i32, i32, i32, i32, i32, i32, i32, i32, i32, i32, i32, i32, i32, i32, i32, i32, i32, i32, i32, i32, i32, i32, i32, i32, i32, i32, i32, i32 }

; Function Attrs: mustprogress nounwind uwtable
define linkonce_odr hidden noundef nonnull align 8 dereferenceable(1888) ptr @_ZNK10scoped_ptrIN2lp10lar_solverEEdeEv(ptr noundef nonnull align 8 dereferenceable(8) %this) #4 comdat align 2 {
entry:
  %this.addr = alloca ptr, align 8
  store ptr %this, ptr %this.addr, align 8
  %this1 = load ptr, ptr %this.addr, align 8
  %m_ptr = getelementptr inbounds %class.scoped_ptr.219, ptr %this1, i32 0, i32 0
  %0 = load ptr, ptr %m_ptr, align 8
  ret ptr %0
}

; Function Attrs: mustprogress nounwind uwtable
define linkonce_odr hidden noundef nonnull align 4 dereferenceable(124) ptr @_ZNK2lp11lp_settings5statsEv(ptr noundef nonnull align 8 dereferenceable(299) %this) #4 comdat align 2 {
entry:
  %this.addr = alloca ptr, align 8
  store ptr %this, ptr %this.addr, align 8
  %this1 = load ptr, ptr %this.addr, align 8
  %m_stats = getelementptr inbounds %"struct.lp::lp_settings", ptr %this1, i32 0, i32 4
  ret ptr %m_stats
}

; Function Attrs: mustprogress uwtable
define linkonce_odr hidden noundef nonnull align 8 dereferenceable(1888) ptr @_ZNK5arith6solver2lpEv(ptr noundef nonnull align 8 dereferenceable(1144) %this) #5 comdat align 2 {
entry:
  %this.addr = alloca ptr, align 8
  store ptr %this, ptr %this.addr, align 8
  %this1 = load ptr, ptr %this.addr, align 8
  %m_solver = getelementptr inbounds %"class.arith::solver", ptr %this1, i32 0, i32 38
  %call = call noundef nonnull align 8 dereferenceable(1888) ptr @_ZNK10scoped_ptrIN2lp10lar_solverEEdeEv(ptr noundef nonnull align 8 dereferenceable(8) %m_solver)
  ret ptr %call
}

; Function Attrs: mustprogress uwtable
define hidden void @_ZNK5arith6solver18collect_statisticsER10statistics(ptr noundef nonnull align 8 dereferenceable(1144) %this, ptr noundef nonnull align 8 dereferenceable(16) %st) unnamed_addr #5 align 2 {
entry:
  %this.addr = alloca ptr, align 8
  %st.addr = alloca ptr, align 8
  store ptr %this, ptr %this.addr, align 8
  store ptr %st, ptr %st.addr, align 8
  %this1 = load ptr, ptr %this.addr, align 8
  %m_stats = getelementptr inbounds %"class.arith::solver", ptr %this1, i32 0, i32 34
  %0 = load ptr, ptr %st.addr, align 8
  call void @_ZNK6lp_api5stats18collect_statisticsER10statistics(ptr noundef nonnull align 4 dereferenceable(64) %m_stats, ptr noundef nonnull align 8 dereferenceable(16) %0)
  %call = call noundef nonnull align 8 dereferenceable(1888) ptr @_ZNK5arith6solver2lpEv(ptr noundef nonnull align 8 dereferenceable(1144) %this1)
  %call2 = call noundef nonnull align 8 dereferenceable(299) ptr @_ZNK2lp10lar_solver8settingsEv(ptr noundef nonnull align 8 dereferenceable(1888) %call)
  %call3 = call noundef nonnull align 4 dereferenceable(124) ptr @_ZNK2lp11lp_settings5statsEv(ptr noundef nonnull align 8 dereferenceable(299) %call2)
  %1 = load ptr, ptr %st.addr, align 8
  call void @_ZNK2lp10statistics18collect_statisticsER10statistics(ptr noundef nonnull align 4 dereferenceable(124) %call3, ptr noundef nonnull align 8 dereferenceable(16) %1)
  ret void
}