; Function Attrs: mustprogress uwtable
define hidden void @_ZNK5arith6solver18collect_statisticsER10statistics(ptr noundef nonnull align 8 dereferenceable(1144) %this, ptr noundef nonnull align 8 dereferenceable(16) %st) unnamed_addr #3 align 2 {
entry:
  %m_stats = getelementptr inbounds i8, ptr %this, i64 500
  tail call void @_ZNK6lp_api5stats18collect_statisticsER10statistics(ptr noundef nonnull align 4 dereferenceable(64) %m_stats, ptr noundef nonnull align 8 dereferenceable(16) %st)
  %m_solver.i = getelementptr inbounds i8, ptr %this, i64 592
  %0 = load ptr, ptr %m_solver.i, align 8
  %call2 = tail call noundef nonnull align 8 dereferenceable(299) ptr @_ZNK2lp10lar_solver8settingsEv(ptr noundef nonnull align 8 dereferenceable(1888) %0)
  %m_stats.i = getelementptr inbounds i8, ptr %call2, i64 64
  tail call void @_ZNK2lp10statistics18collect_statisticsER10statistics(ptr noundef nonnull align 4 dereferenceable(124) %m_stats.i, ptr noundef nonnull align 8 dereferenceable(16) %st)
  ret void
}